target datalayout = "e-m:e-p270:32:32-p271:32:32-p272:64:64-i64:64-i128:128-f80:128-n8:16:32:64-S128"
target triple = "x86_64-pc-linux-gnu"

%struct.SlruCtlData = type { ptr, i16, i8, i32, ptr, [64 x i8] }
%struct.pg_atomic_uint64 = type { i64 }
%struct.SlruSharedData = type { i32, ptr, ptr, ptr, ptr, ptr, ptr, ptr, ptr, ptr, i32, %struct.pg_atomic_uint64, i32 }

@XactCtlData = internal global %struct.SlruCtlData zeroinitializer, align 8
@InRecovery = external global i8, align 1

; Function Attrs: nounwind uwtable
define internal void @TransactionIdSetStatusBit(i32 noundef %0, i32 noundef %1, i64 noundef %2, i32 noundef %3) #0 {
  %5 = alloca i32, align 4
  %6 = alloca i32, align 4
  %7 = alloca i64, align 8
  %8 = alloca i32, align 4
  %9 = alloca i32, align 4
  %10 = alloca i32, align 4
  %11 = alloca ptr, align 8
  %12 = alloca i8, align 1
  %13 = alloca i8, align 1
  %14 = alloca i32, align 4
  %15 = alloca i32, align 4
  store i32 %0, ptr %5, align 4
  store i32 %1, ptr %6, align 4
  store i64 %2, ptr %7, align 8
  store i32 %3, ptr %8, align 4
  call void @llvm.lifetime.start.p0(i64 4, ptr %9) #8
  %16 = load i32, ptr %5, align 4
  %17 = urem i32 %16, 32768
  %18 = udiv i32 %17, 4
  store i32 %18, ptr %9, align 4
  call void @llvm.lifetime.start.p0(i64 4, ptr %10) #8
  %19 = load i32, ptr %5, align 4
  %20 = urem i32 %19, 4
  %21 = mul i32 %20, 2
  store i32 %21, ptr %10, align 4
  call void @llvm.lifetime.start.p0(i64 8, ptr %11) #8
  call void @llvm.lifetime.start.p0(i64 1, ptr %12) #8
  call void @llvm.lifetime.start.p0(i64 1, ptr %13) #8
  %22 = load ptr, ptr @XactCtlData, align 8
  %23 = getelementptr inbounds nuw %struct.SlruSharedData, ptr %22, i32 0, i32 1
  %24 = load ptr, ptr %23, align 8
  %25 = load i32, ptr %8, align 4
  %26 = sext i32 %25 to i64
  %27 = getelementptr inbounds ptr, ptr %24, i64 %26
  %28 = load ptr, ptr %27, align 8
  %29 = load i32, ptr %9, align 4
  %30 = sext i32 %29 to i64
  %31 = getelementptr inbounds i8, ptr %28, i64 %30
  store ptr %31, ptr %11, align 8
  %32 = load ptr, ptr %11, align 8
  %33 = load i8, ptr %32, align 1
  %34 = sext i8 %33 to i32
  %35 = load i32, ptr %10, align 4
  %36 = ashr i32 %34, %35
  %37 = and i32 %36, 3
  %38 = trunc i32 %37 to i8
  store i8 %38, ptr %13, align 1
  %39 = load i8, ptr @InRecovery, align 1, !range !6, !noundef !7
  %40 = trunc i8 %39 to i1
  br i1 %40, label %41, label %49

41:                                               ; preds = %4
  %42 = load i32, ptr %6, align 4
  %43 = icmp eq i32 %42, 3
  br i1 %43, label %44, label %49

44:                                               ; preds = %41
  %45 = load i8, ptr %13, align 1
  %46 = sext i8 %45 to i32
  %47 = icmp eq i32 %46, 1
  br i1 %47, label %48, label %49

48:                                               ; preds = %44
  store i32 1, ptr %14, align 4
  br label %96

49:                                               ; preds = %44, %41, %4
  %50 = load ptr, ptr %11, align 8
  %51 = load i8, ptr %50, align 1
  store i8 %51, ptr %12, align 1
  %52 = load i32, ptr %10, align 4
  %53 = shl i32 3, %52
  %54 = xor i32 %53, -1
  %55 = load i8, ptr %12, align 1
  %56 = sext i8 %55 to i32
  %57 = and i32 %56, %54
  %58 = trunc i32 %57 to i8
  store i8 %58, ptr %12, align 1
  %59 = load i32, ptr %6, align 4
  %60 = load i32, ptr %10, align 4
  %61 = shl i32 %59, %60
  %62 = load i8, ptr %12, align 1
  %63 = sext i8 %62 to i32
  %64 = or i32 %63, %61
  %65 = trunc i32 %64 to i8
  store i8 %65, ptr %12, align 1
  %66 = load i8, ptr %12, align 1
  %67 = load ptr, ptr %11, align 8
  store i8 %66, ptr %67, align 1
  %68 = load i64, ptr %7, align 8
  %69 = icmp eq i64 %68, 0
  br i1 %69, label %95, label %70

70:                                               ; preds = %49
  call void @llvm.lifetime.start.p0(i64 4, ptr %15) #8
  %71 = load i32, ptr %8, align 4
  %72 = mul i32 %71, 1024
  %73 = load i32, ptr %5, align 4
  %74 = urem i32 %73, 32768
  %75 = udiv i32 %74, 32
  %76 = add i32 %72, %75
  store i32 %76, ptr %15, align 4
  %77 = load ptr, ptr @XactCtlData, align 8
  %78 = getelementptr inbounds nuw %struct.SlruSharedData, ptr %77, i32 0, i32 9
  %79 = load ptr, ptr %78, align 8
  %80 = load i32, ptr %15, align 4
  %81 = sext i32 %80 to i64
  %82 = getelementptr inbounds i64, ptr %79, i64 %81
  %83 = load i64, ptr %82, align 8
  %84 = load i64, ptr %7, align 8
  %85 = icmp ult i64 %83, %84
  br i1 %85, label %86, label %94

86:                                               ; preds = %70
  %87 = load i64, ptr %7, align 8
  %88 = load ptr, ptr @XactCtlData, align 8
  %89 = getelementptr inbounds nuw %struct.SlruSharedData, ptr %88, i32 0, i32 9
  %90 = load ptr, ptr %89, align 8
  %91 = load i32, ptr %15, align 4
  %92 = sext i32 %91 to i64
  %93 = getelementptr inbounds i64, ptr %90, i64 %92
  store i64 %87, ptr %93, align 8
  br label %94

94:                                               ; preds = %86, %70
  call void @llvm.lifetime.end.p0(i64 4, ptr %15) #8
  br label %95

95:                                               ; preds = %94, %49
  store i32 0, ptr %14, align 4
  br label %96

96:                                               ; preds = %95, %48
  call void @llvm.lifetime.end.p0(i64 1, ptr %13) #8
  call void @llvm.lifetime.end.p0(i64 1, ptr %12) #8
  call void @llvm.lifetime.end.p0(i64 8, ptr %11) #8
  call void @llvm.lifetime.end.p0(i64 4, ptr %10) #8
  call void @llvm.lifetime.end.p0(i64 4, ptr %9) #8
  %97 = load i32, ptr %14, align 4
  switch i32 %97, label %99 [
    i32 0, label %98
    i32 1, label %98
  ]

98:                                               ; preds = %96, %96
  ret void

99:                                               ; preds = %96
  unreachable
}

; Function Attrs: nounwind uwtable
define internal void @TransactionIdSetPageStatusInternal(i32 noundef %0, i32 noundef %1, ptr noundef %2, i32 noundef %3, i64 noundef %4, i64 noundef %5) #0 {
  %7 = alloca i32, align 4
  %8 = alloca i32, align 4
  %9 = alloca ptr, align 8
  %10 = alloca i32, align 4
  %11 = alloca i64, align 8
  %12 = alloca i64, align 8
  %13 = alloca i32, align 4
  %14 = alloca i32, align 4
  store i32 %0, ptr %7, align 4
  store i32 %1, ptr %8, align 4
  store ptr %2, ptr %9, align 8
  store i32 %3, ptr %10, align 4
  store i64 %4, ptr %11, align 8
  store i64 %5, ptr %12, align 8
  call void @llvm.lifetime.start.p0(i64 4, ptr %13) #8
  call void @llvm.lifetime.start.p0(i64 4, ptr %14) #8
  %15 = load i64, ptr %12, align 8
  %16 = load i64, ptr %11, align 8
  %17 = icmp eq i64 %16, 0
  %18 = load i32, ptr %7, align 4
  %19 = call i32 @SimpleLruReadPage(ptr noundef @XactCtlData, i64 noundef %15, i1 noundef zeroext %17, i32 noundef %18)
  store i32 %19, ptr %13, align 4
  %20 = load i32, ptr %7, align 4
  %21 = icmp ne i32 %20, 0
  br i1 %21, label %22, label %47

22:                                               ; preds = %6
  %23 = load i32, ptr %10, align 4
  %24 = icmp eq i32 %23, 1
  br i1 %24, label %25, label %42

25:                                               ; preds = %22
  store i32 0, ptr %14, align 4
  br label %26

26:                                               ; preds = %38, %25
  %27 = load i32, ptr %14, align 4
  %28 = load i32, ptr %8, align 4
  %29 = icmp slt i32 %27, %28
  br i1 %29, label %30, label %41

30:                                               ; preds = %26
  %31 = load ptr, ptr %9, align 8
  %32 = load i32, ptr %14, align 4
  %33 = sext i32 %32 to i64
  %34 = getelementptr inbounds i32, ptr %31, i64 %33
  %35 = load i32, ptr %34, align 4
  %36 = load i64, ptr %11, align 8
  %37 = load i32, ptr %13, align 4
  call void @TransactionIdSetStatusBit(i32 noundef %35, i32 noundef 3, i64 noundef %36, i32 noundef %37)
  br label %38

38:                                               ; preds = %30
  %39 = load i32, ptr %14, align 4
  %40 = add i32 %39, 1
  store i32 %40, ptr %14, align 4
  br label %26, !llvm.loop !11

41:                                               ; preds = %26
  br label %42

42:                                               ; preds = %41, %22
  %43 = load i32, ptr %7, align 4
  %44 = load i32, ptr %10, align 4
  %45 = load i64, ptr %11, align 8
  %46 = load i32, ptr %13, align 4
  call void @TransactionIdSetStatusBit(i32 noundef %43, i32 noundef %44, i64 noundef %45, i32 noundef %46)
  br label %47

47:                                               ; preds = %42, %6
  store i32 0, ptr %14, align 4
  br label %48

48:                                               ; preds = %61, %47
  %49 = load i32, ptr %14, align 4
  %50 = load i32, ptr %8, align 4
  %51 = icmp slt i32 %49, %50
  br i1 %51, label %52, label %64

52:                                               ; preds = %48
  %53 = load ptr, ptr %9, align 8
  %54 = load i32, ptr %14, align 4
  %55 = sext i32 %54 to i64
  %56 = getelementptr inbounds i32, ptr %53, i64 %55
  %57 = load i32, ptr %56, align 4
  %58 = load i32, ptr %10, align 4
  %59 = load i64, ptr %11, align 8
  %60 = load i32, ptr %13, align 4
  call void @TransactionIdSetStatusBit(i32 noundef %57, i32 noundef %58, i64 noundef %59, i32 noundef %60)
  br label %61

61:                                               ; preds = %52
  %62 = load i32, ptr %14, align 4
  %63 = add i32 %62, 1
  store i32 %63, ptr %14, align 4
  br label %48, !llvm.loop !12

64:                                               ; preds = %48
  %65 = load ptr, ptr @XactCtlData, align 8
  %66 = getelementptr inbounds nuw %struct.SlruSharedData, ptr %65, i32 0, i32 3
  %67 = load ptr, ptr %66, align 8
  %68 = load i32, ptr %13, align 4
  %69 = sext i32 %68 to i64
  %70 = getelementptr inbounds i8, ptr %67, i64 %69
  store i8 1, ptr %70, align 1
  call void @llvm.lifetime.end.p0(i64 4, ptr %14) #8
  call void @llvm.lifetime.end.p0(i64 4, ptr %13) #8
  ret void
}