; Function Attrs: nounwind uwtable
define internal fastcc void @TransactionIdSetPageStatusInternal(i32 noundef %0, i32 noundef %1, ptr noundef readonly captures(none) %2, i32 noundef %3, i64 noundef %4, i64 noundef %5) unnamed_addr #0 {
  %7 = icmp eq i64 %4, 0
  %8 = tail call i32 @SimpleLruReadPage(ptr noundef nonnull @XactCtlData, i64 noundef %5, i1 noundef zeroext %7, i32 noundef %0) #9
  %.not = icmp eq i32 %0, 0
  br i1 %.not, label %TransactionIdSetStatusBit.exit, label %9

9:                                                ; preds = %6
  %10 = icmp eq i32 %3, 1
  br i1 %10, label %.preheader, label %.split

.preheader:                                       ; preds = %9
  %11 = icmp sgt i32 %1, 0
  br i1 %11, label %.lr.ph, label %.preheader..split24_crit_edge

.preheader..split24_crit_edge:                    ; preds = %.preheader
  %.pre63 = load ptr, ptr @XactCtlData, align 8
  %.pre64 = sext i32 %8 to i64
  br label %.split24

.lr.ph:                                           ; preds = %.preheader
  %12 = sext i32 %8 to i64
  %13 = shl i32 %8, 10
  %wide.trip.count46 = zext nneg i32 %1 to i64
  %.pre60 = load ptr, ptr @XactCtlData, align 8
  br i1 %7, label %.lr.ph.split.us.preheader, label %.lr.ph.split

.lr.ph.split.us.preheader:                        ; preds = %.lr.ph
  %.pre62 = load i8, ptr @InRecovery, align 1, !range !9
  br label %.lr.ph.split.us

.lr.ph.split.us:                                  ; preds = %.lr.ph.split.us.preheader, %TransactionIdSetStatusBit.exit33.us
  %14 = phi i8 [ %.pre62, %.lr.ph.split.us.preheader ], [ %38, %TransactionIdSetStatusBit.exit33.us ]
  %15 = phi ptr [ %.pre60, %.lr.ph.split.us.preheader ], [ %39, %TransactionIdSetStatusBit.exit33.us ]
  %indvars.iv43 = phi i64 [ 0, %.lr.ph.split.us.preheader ], [ %indvars.iv.next44, %TransactionIdSetStatusBit.exit33.us ]
  %16 = getelementptr inbounds nuw i32, ptr %2, i64 %indvars.iv43
  %17 = load i32, ptr %16, align 4
  %18 = lshr i32 %17, 2
  %19 = and i32 %18, 8191
  %20 = shl i32 %17, 1
  %21 = and i32 %20, 6
  %22 = getelementptr inbounds nuw i8, ptr %15, i64 8
  %23 = load ptr, ptr %22, align 8
  %24 = getelementptr inbounds ptr, ptr %23, i64 %12
  %25 = load ptr, ptr %24, align 8
  %26 = zext nneg i32 %19 to i64
  %27 = getelementptr inbounds nuw i8, ptr %25, i64 %26
  %28 = load i8, ptr %27, align 1
  %29 = sext i8 %28 to i32
  %30 = ashr i32 %29, %21
  %31 = and i32 %30, 3
  %32 = trunc nuw i8 %14 to i1
  %33 = icmp eq i32 %31, 1
  %or.cond4.i32.us = select i1 %32, i1 %33, i1 false
  br i1 %or.cond4.i32.us, label %TransactionIdSetStatusBit.exit33.us, label %34

34:                                               ; preds = %.lr.ph.split.us
  %35 = shl nuw nsw i32 3, %21
  %36 = trunc nuw i32 %35 to i8
  %37 = or i8 %28, %36
  store i8 %37, ptr %27, align 1
  %.pre59 = load ptr, ptr @XactCtlData, align 8
  %.pre61 = load i8, ptr @InRecovery, align 1, !range !9
  br label %TransactionIdSetStatusBit.exit33.us

TransactionIdSetStatusBit.exit33.us:              ; preds = %34, %.lr.ph.split.us
  %38 = phi i8 [ %.pre61, %34 ], [ 1, %.lr.ph.split.us ]
  %39 = phi ptr [ %.pre59, %34 ], [ %15, %.lr.ph.split.us ]
  %indvars.iv.next44 = add nuw nsw i64 %indvars.iv43, 1
  %exitcond47.not = icmp eq i64 %indvars.iv.next44, %wide.trip.count46
  br i1 %exitcond47.not, label %.split24, label %.lr.ph.split.us, !llvm.loop !15

.split:                                           ; preds = %9
  %40 = and i32 %0, 32767
  %41 = lshr i32 %40, 2
  %42 = shl i32 %0, 1
  %43 = and i32 %42, 6
  %44 = load ptr, ptr @XactCtlData, align 8
  %45 = getelementptr inbounds nuw i8, ptr %44, i64 8
  %46 = load ptr, ptr %45, align 8
  %47 = sext i32 %8 to i64
  %48 = getelementptr inbounds ptr, ptr %46, i64 %47
  %49 = load ptr, ptr %48, align 8
  %50 = zext nneg i32 %41 to i64
  %51 = getelementptr inbounds nuw i8, ptr %49, i64 %50
  %52 = load i8, ptr %51, align 1
  %53 = sext i8 %52 to i32
  %54 = ashr i32 %53, %43
  %55 = and i32 %54, 3
  %56 = load i8, ptr @InRecovery, align 1, !range !9, !noundef !10
  %57 = trunc nuw i8 %56 to i1
  %58 = icmp eq i32 %3, 3
  %or.cond.i = and i1 %58, %57
  %59 = icmp eq i32 %55, 1
  %or.cond4.i = select i1 %or.cond.i, i1 %59, i1 false
  br i1 %or.cond4.i, label %TransactionIdSetStatusBit.exit, label %60

60:                                               ; preds = %.split
  %61 = shl nuw nsw i32 3, %43
  %62 = trunc nuw i32 %61 to i8
  %63 = xor i8 %62, -1
  %64 = and i8 %52, %63
  %65 = shl i32 %3, %43
  %66 = trunc i32 %65 to i8
  %67 = or i8 %64, %66
  store i8 %67, ptr %51, align 1
  br i1 %7, label %TransactionIdSetStatusBit.exit, label %68

68:                                               ; preds = %60
  %69 = shl i32 %8, 10
  %70 = lshr i32 %40, 5
  %71 = or disjoint i32 %69, %70
  %72 = load ptr, ptr @XactCtlData, align 8
  %73 = getelementptr inbounds nuw i8, ptr %72, i64 72
  %74 = load ptr, ptr %73, align 8
  %75 = sext i32 %71 to i64
  %76 = getelementptr inbounds i64, ptr %74, i64 %75
  %77 = load i64, ptr %76, align 8
  %78 = icmp ult i64 %77, %4
  br i1 %78, label %79, label %TransactionIdSetStatusBit.exit

79:                                               ; preds = %68
  store i64 %4, ptr %76, align 8
  br label %TransactionIdSetStatusBit.exit

.split24:                                         ; preds = %TransactionIdSetStatusBit.exit33, %TransactionIdSetStatusBit.exit33.us, %.preheader..split24_crit_edge
  %.pre-phi = phi i64 [ %.pre64, %.preheader..split24_crit_edge ], [ %12, %TransactionIdSetStatusBit.exit33.us ], [ %12, %TransactionIdSetStatusBit.exit33 ]
  %80 = phi ptr [ %.pre63, %.preheader..split24_crit_edge ], [ %39, %TransactionIdSetStatusBit.exit33.us ], [ %145, %TransactionIdSetStatusBit.exit33 ]
  %81 = and i32 %0, 32767
  %82 = lshr i32 %81, 2
  %83 = shl i32 %0, 1
  %84 = and i32 %83, 6
  %85 = getelementptr inbounds nuw i8, ptr %80, i64 8
  %86 = load ptr, ptr %85, align 8
  %87 = getelementptr inbounds ptr, ptr %86, i64 %.pre-phi
  %88 = load ptr, ptr %87, align 8
  %89 = zext nneg i32 %82 to i64
  %90 = getelementptr inbounds nuw i8, ptr %88, i64 %89
  %91 = load i8, ptr %90, align 1
  %92 = shl nuw nsw i32 3, %84
  %93 = trunc nuw i32 %92 to i8
  %94 = xor i8 %93, -1
  %95 = and i8 %91, %94
  %96 = shl nuw nsw i32 1, %84
  %97 = trunc nuw nsw i32 %96 to i8
  %98 = or i8 %95, %97
  store i8 %98, ptr %90, align 1
  br i1 %7, label %TransactionIdSetStatusBit.exit, label %99

99:                                               ; preds = %.split24
  %100 = shl i32 %8, 10
  %101 = lshr i32 %81, 5
  %102 = or disjoint i32 %100, %101
  %103 = load ptr, ptr @XactCtlData, align 8
  %104 = getelementptr inbounds nuw i8, ptr %103, i64 72
  %105 = load ptr, ptr %104, align 8
  %106 = sext i32 %102 to i64
  %107 = getelementptr inbounds i64, ptr %105, i64 %106
  %108 = load i64, ptr %107, align 8
  %109 = icmp ult i64 %108, %4
  br i1 %109, label %110, label %TransactionIdSetStatusBit.exit

110:                                              ; preds = %99
  store i64 %4, ptr %107, align 8
  br label %TransactionIdSetStatusBit.exit

.lr.ph.split:                                     ; preds = %.lr.ph, %TransactionIdSetStatusBit.exit33
  %111 = phi ptr [ %145, %TransactionIdSetStatusBit.exit33 ], [ %.pre60, %.lr.ph ]
  %indvars.iv = phi i64 [ %indvars.iv.next, %TransactionIdSetStatusBit.exit33 ], [ 0, %.lr.ph ]
  %112 = getelementptr inbounds nuw i32, ptr %2, i64 %indvars.iv
  %113 = load i32, ptr %112, align 4
  %114 = and i32 %113, 32767
  %115 = lshr i32 %114, 2
  %116 = shl i32 %113, 1
  %117 = and i32 %116, 6
  %118 = getelementptr inbounds nuw i8, ptr %111, i64 8
  %119 = load ptr, ptr %118, align 8
  %120 = getelementptr inbounds ptr, ptr %119, i64 %12
  %121 = load ptr, ptr %120, align 8
  %122 = zext nneg i32 %115 to i64
  %123 = getelementptr inbounds nuw i8, ptr %121, i64 %122
  %124 = load i8, ptr %123, align 1
  %125 = sext i8 %124 to i32
  %126 = ashr i32 %125, %117
  %127 = and i32 %126, 3
  %128 = load i8, ptr @InRecovery, align 1, !range !9, !noundef !10
  %129 = trunc nuw i8 %128 to i1
  %130 = icmp eq i32 %127, 1
  %or.cond4.i32 = select i1 %129, i1 %130, i1 false
  br i1 %or.cond4.i32, label %TransactionIdSetStatusBit.exit33, label %131

131:                                              ; preds = %.lr.ph.split
  %132 = shl nuw nsw i32 3, %117
  %133 = trunc nuw i32 %132 to i8
  %134 = or i8 %124, %133
  store i8 %134, ptr %123, align 1
  %135 = lshr i32 %114, 5
  %136 = or disjoint i32 %135, %13
  %137 = load ptr, ptr @XactCtlData, align 8
  %138 = getelementptr inbounds nuw i8, ptr %137, i64 72
  %139 = load ptr, ptr %138, align 8
  %140 = sext i32 %136 to i64
  %141 = getelementptr inbounds i64, ptr %139, i64 %140
  %142 = load i64, ptr %141, align 8
  %143 = icmp ult i64 %142, %4
  br i1 %143, label %144, label %TransactionIdSetStatusBit.exit33

144:                                              ; preds = %131
  store i64 %4, ptr %141, align 8
  %.pre = load ptr, ptr @XactCtlData, align 8
  br label %TransactionIdSetStatusBit.exit33

TransactionIdSetStatusBit.exit33:                 ; preds = %.lr.ph.split, %131, %144
  %145 = phi ptr [ %111, %.lr.ph.split ], [ %137, %131 ], [ %.pre, %144 ]
  %indvars.iv.next = add nuw nsw i64 %indvars.iv, 1
  %exitcond.not = icmp eq i64 %indvars.iv.next, %wide.trip.count46
  br i1 %exitcond.not, label %.split24, label %.lr.ph.split, !llvm.loop !15

TransactionIdSetStatusBit.exit:                   ; preds = %110, %99, %.split24, %79, %68, %60, %.split, %6
  %146 = icmp sgt i32 %1, 0
  br i1 %146, label %.lr.ph39, label %TransactionIdSetStatusBit.exit.._crit_edge_crit_edge

TransactionIdSetStatusBit.exit.._crit_edge_crit_edge: ; preds = %TransactionIdSetStatusBit.exit
  %.pre71 = load ptr, ptr @XactCtlData, align 8
  %.pre72 = sext i32 %8 to i64
  br label %._crit_edge

.lr.ph39:                                         ; preds = %TransactionIdSetStatusBit.exit
  %147 = sext i32 %8 to i64
  %148 = icmp eq i32 %3, 3
  %149 = shl i32 %8, 10
  %wide.trip.count56 = zext nneg i32 %1 to i64
  %.pre68 = load ptr, ptr @XactCtlData, align 8
  br i1 %7, label %.lr.ph39.split.us.preheader, label %.lr.ph39.split

.lr.ph39.split.us.preheader:                      ; preds = %.lr.ph39
  %.pre70 = load i8, ptr @InRecovery, align 1, !range !9
  br label %.lr.ph39.split.us

.lr.ph39.split.us:                                ; preds = %.lr.ph39.split.us.preheader, %TransactionIdSetStatusBit.exit36.us
  %150 = phi i8 [ %.pre70, %.lr.ph39.split.us.preheader ], [ %178, %TransactionIdSetStatusBit.exit36.us ]
  %151 = phi ptr [ %.pre68, %.lr.ph39.split.us.preheader ], [ %179, %TransactionIdSetStatusBit.exit36.us ]
  %indvars.iv53 = phi i64 [ 0, %.lr.ph39.split.us.preheader ], [ %indvars.iv.next54, %TransactionIdSetStatusBit.exit36.us ]
  %152 = getelementptr inbounds nuw i32, ptr %2, i64 %indvars.iv53
  %153 = load i32, ptr %152, align 4
  %154 = lshr i32 %153, 2
  %155 = and i32 %154, 8191
  %156 = shl i32 %153, 1
  %157 = and i32 %156, 6
  %158 = getelementptr inbounds nuw i8, ptr %151, i64 8
  %159 = load ptr, ptr %158, align 8
  %160 = getelementptr inbounds ptr, ptr %159, i64 %147
  %161 = load ptr, ptr %160, align 8
  %162 = zext nneg i32 %155 to i64
  %163 = getelementptr inbounds nuw i8, ptr %161, i64 %162
  %164 = load i8, ptr %163, align 1
  %165 = sext i8 %164 to i32
  %166 = ashr i32 %165, %157
  %167 = and i32 %166, 3
  %168 = trunc nuw i8 %150 to i1
  %or.cond.i34.us = and i1 %148, %168
  %169 = icmp eq i32 %167, 1
  %or.cond4.i35.us = select i1 %or.cond.i34.us, i1 %169, i1 false
  br i1 %or.cond4.i35.us, label %TransactionIdSetStatusBit.exit36.us, label %170

170:                                              ; preds = %.lr.ph39.split.us
  %171 = shl nuw nsw i32 3, %157
  %172 = trunc nuw i32 %171 to i8
  %173 = xor i8 %172, -1
  %174 = and i8 %164, %173
  %175 = shl i32 %3, %157
  %176 = trunc i32 %175 to i8
  %177 = or i8 %174, %176
  store i8 %177, ptr %163, align 1
  %.pre67 = load ptr, ptr @XactCtlData, align 8
  %.pre69 = load i8, ptr @InRecovery, align 1, !range !9
  br label %TransactionIdSetStatusBit.exit36.us

TransactionIdSetStatusBit.exit36.us:              ; preds = %170, %.lr.ph39.split.us
  %178 = phi i8 [ %.pre69, %170 ], [ 1, %.lr.ph39.split.us ]
  %179 = phi ptr [ %.pre67, %170 ], [ %151, %.lr.ph39.split.us ]
  %indvars.iv.next54 = add nuw nsw i64 %indvars.iv53, 1
  %exitcond57.not = icmp eq i64 %indvars.iv.next54, %wide.trip.count56
  br i1 %exitcond57.not, label %._crit_edge, label %.lr.ph39.split.us, !llvm.loop !16

.lr.ph39.split:                                   ; preds = %.lr.ph39, %TransactionIdSetStatusBit.exit36
  %180 = phi ptr [ %218, %TransactionIdSetStatusBit.exit36 ], [ %.pre68, %.lr.ph39 ]
  %indvars.iv48 = phi i64 [ %indvars.iv.next49, %TransactionIdSetStatusBit.exit36 ], [ 0, %.lr.ph39 ]
  %181 = getelementptr inbounds nuw i32, ptr %2, i64 %indvars.iv48
  %182 = load i32, ptr %181, align 4
  %183 = and i32 %182, 32767
  %184 = lshr i32 %183, 2
  %185 = shl i32 %182, 1
  %186 = and i32 %185, 6
  %187 = getelementptr inbounds nuw i8, ptr %180, i64 8
  %188 = load ptr, ptr %187, align 8
  %189 = getelementptr inbounds ptr, ptr %188, i64 %147
  %190 = load ptr, ptr %189, align 8
  %191 = zext nneg i32 %184 to i64
  %192 = getelementptr inbounds nuw i8, ptr %190, i64 %191
  %193 = load i8, ptr %192, align 1
  %194 = sext i8 %193 to i32
  %195 = ashr i32 %194, %186
  %196 = and i32 %195, 3
  %197 = load i8, ptr @InRecovery, align 1, !range !9, !noundef !10
  %198 = trunc nuw i8 %197 to i1
  %or.cond.i34 = and i1 %148, %198
  %199 = icmp eq i32 %196, 1
  %or.cond4.i35 = select i1 %or.cond.i34, i1 %199, i1 false
  br i1 %or.cond4.i35, label %TransactionIdSetStatusBit.exit36, label %200

200:                                              ; preds = %.lr.ph39.split
  %201 = shl nuw nsw i32 3, %186
  %202 = trunc nuw i32 %201 to i8
  %203 = xor i8 %202, -1
  %204 = and i8 %193, %203
  %205 = shl i32 %3, %186
  %206 = trunc i32 %205 to i8
  %207 = or i8 %204, %206
  store i8 %207, ptr %192, align 1
  %208 = lshr i32 %183, 5
  %209 = or disjoint i32 %208, %149
  %210 = load ptr, ptr @XactCtlData, align 8
  %211 = getelementptr inbounds nuw i8, ptr %210, i64 72
  %212 = load ptr, ptr %211, align 8
  %213 = sext i32 %209 to i64
  %214 = getelementptr inbounds i64, ptr %212, i64 %213
  %215 = load i64, ptr %214, align 8
  %216 = icmp ult i64 %215, %4
  br i1 %216, label %217, label %TransactionIdSetStatusBit.exit36

217:                                              ; preds = %200
  store i64 %4, ptr %214, align 8
  %.pre65 = load ptr, ptr @XactCtlData, align 8
  br label %TransactionIdSetStatusBit.exit36

TransactionIdSetStatusBit.exit36:                 ; preds = %.lr.ph39.split, %200, %217
  %218 = phi ptr [ %180, %.lr.ph39.split ], [ %210, %200 ], [ %.pre65, %217 ]
  %indvars.iv.next49 = add nuw nsw i64 %indvars.iv48, 1
  %exitcond52.not = icmp eq i64 %indvars.iv.next49, %wide.trip.count56
  br i1 %exitcond52.not, label %._crit_edge, label %.lr.ph39.split, !llvm.loop !16

._crit_edge:                                      ; preds = %TransactionIdSetStatusBit.exit36, %TransactionIdSetStatusBit.exit36.us, %TransactionIdSetStatusBit.exit.._crit_edge_crit_edge
  %.pre-phi73 = phi i64 [ %.pre72, %TransactionIdSetStatusBit.exit.._crit_edge_crit_edge ], [ %147, %TransactionIdSetStatusBit.exit36.us ], [ %147, %TransactionIdSetStatusBit.exit36 ]
  %219 = phi ptr [ %.pre71, %TransactionIdSetStatusBit.exit.._crit_edge_crit_edge ], [ %179, %TransactionIdSetStatusBit.exit36.us ], [ %218, %TransactionIdSetStatusBit.exit36 ]
  %220 = getelementptr inbounds nuw i8, ptr %219, i64 24
  %221 = load ptr, ptr %220, align 8
  %222 = getelementptr inbounds i8, ptr %221, i64 %.pre-phi73
  store i8 1, ptr %222, align 1
  ret void
}